target datalayout = "e-m:e-p270:32:32-p271:32:32-p272:64:64-i64:64-i128:128-f80:128-n8:16:32:64-S128"
target triple = "x86_64-pc-linux-gnu"

%struct.quicklist = type { ptr, ptr, i64, i64, i64, [0 x %struct.quicklistBookmark] }
%struct.quicklistBookmark = type { ptr, ptr }

; Function Attrs: nounwind uwtable
define dso_local ptr @_quicklistBookmarkFindByName(ptr noundef %0, ptr noundef %1) #0 {
  %3 = alloca ptr, align 8
  %4 = alloca ptr, align 8
  %5 = alloca ptr, align 8
  %6 = alloca i32, align 4
  %7 = alloca i32, align 4
  store ptr %0, ptr %4, align 8, !tbaa !9
  store ptr %1, ptr %5, align 8, !tbaa !35
  call void @llvm.lifetime.start.p0(i64 4, ptr %6) #10
  store i32 0, ptr %6, align 4, !tbaa !14
  br label %8

8:                                                ; preds = %35, %2
  %9 = load i32, ptr %6, align 4, !tbaa !14
  %10 = load ptr, ptr %4, align 8, !tbaa !9
  %11 = getelementptr inbounds nuw %struct.quicklist, ptr %10, i32 0, i32 4
  %12 = load i64, ptr %11, align 8
  %13 = lshr i64 %12, 32
  %14 = and i64 %13, 15
  %15 = trunc i64 %14 to i32
  %16 = icmp ult i32 %9, %15
  br i1 %16, label %17, label %38

17:                                               ; preds = %8
  %18 = load ptr, ptr %4, align 8, !tbaa !9
  %19 = getelementptr inbounds nuw %struct.quicklist, ptr %18, i32 0, i32 5
  %20 = load i32, ptr %6, align 4, !tbaa !14
  %21 = zext i32 %20 to i64
  %22 = getelementptr inbounds nuw [0 x %struct.quicklistBookmark], ptr %19, i64 0, i64 %21
  %23 = getelementptr inbounds nuw %struct.quicklistBookmark, ptr %22, i32 0, i32 1
  %24 = load ptr, ptr %23, align 8, !tbaa !24
  %25 = load ptr, ptr %5, align 8, !tbaa !35
  %26 = call i32 @strcmp(ptr noundef %24, ptr noundef %25) #14
  %27 = icmp ne i32 %26, 0
  br i1 %27, label %34, label %28

28:                                               ; preds = %17
  %29 = load ptr, ptr %4, align 8, !tbaa !9
  %30 = getelementptr inbounds nuw %struct.quicklist, ptr %29, i32 0, i32 5
  %31 = load i32, ptr %6, align 4, !tbaa !14
  %32 = zext i32 %31 to i64
  %33 = getelementptr inbounds nuw [0 x %struct.quicklistBookmark], ptr %30, i64 0, i64 %32
  store ptr %33, ptr %3, align 8
  store i32 1, ptr %7, align 4
  br label %39

34:                                               ; preds = %17
  br label %35

35:                                               ; preds = %34
  %36 = load i32, ptr %6, align 4, !tbaa !14
  %37 = add i32 %36, 1
  store i32 %37, ptr %6, align 4, !tbaa !14
  br label %8, !llvm.loop !70

38:                                               ; preds = %8
  store ptr null, ptr %3, align 8
  store i32 1, ptr %7, align 4
  br label %39

39:                                               ; preds = %38, %28
  call void @llvm.lifetime.end.p0(i64 4, ptr %6) #10
  %40 = load ptr, ptr %3, align 8
  ret ptr %40
}